Certificate:
    Data:
        Version: 3 (0x2)
        Serial Number: 1 (0x1)
        Signature Algorithm: sha256WithRSAEncryption
        Issuer: C=CN, ST=FuJian, O=apexsoft, OU=apexsoft, CN=apexsoft/emailAddress=chengbenshan@apexsoft.com.cn
        Validity
            Not Before: Dec 22 06:58:36 2017 GMT
            Not After : Dec 22 06:58:36 2018 GMT
        Subject: C=CN, ST=FuJian, O=apexsoft, OU=apexsoft, CN=apexsoft/emailAddress=chengbenshan@apexsoft.com.cn
        Subject Public Key Info:
            Public Key Algorithm: rsaEncryption
                RSA Public-Key: (2048 bit)
                Modulus:
                    00:e3:e1:53:03:b4:61:ee:64:25:ae:98:58:8c:68:
                    29:32:8c:95:1b:c8:8a:57:48:c8:39:ab:94:0a:55:
                    e6:66:4e:e5:e2:1b:60:66:53:4d:41:c7:1c:95:80:
                    80:cf:48:65:22:61:a6:d8:b8:84:a8:70:c6:ce:7c:
                    b1:c8:71:85:cf:47:42:f8:8d:2f:f5:f6:bf:8d:f1:
                    e1:82:26:fa:07:65:a0:31:22:9a:af:4f:fb:60:d9:
                    90:a5:e5:78:6f:ac:6b:3b:83:e2:a5:38:e0:02:56:
                    cb:ad:fd:19:d8:48:b6:4b:8b:3a:f0:b4:32:c8:c7:
                    e1:ec:59:68:91:e9:b7:52:8b:e4:e6:71:af:15:00:
                    db:f9:07:e7:c3:e9:3f:e8:a3:c4:64:5e:cd:41:ec:
                    cf:78:d6:09:9f:13:07:e1:a8:12:33:3a:e2:4c:34:
                    f5:36:8d:6f:21:f9:0d:77:c6:3d:8b:9f:42:65:ed:
                    24:27:bd:4f:9d:ad:13:5f:2a:c3:54:b2:38:a4:50:
                    40:77:3f:67:e8:90:db:c2:d1:12:3e:40:a5:84:32:
                    5c:ae:b1:12:ae:60:9d:d9:cc:ad:b4:d7:37:31:81:
                    f3:da:bd:22:c3:e5:ca:19:d4:28:52:b6:b9:15:34:
                    0b:23:6f:8c:5f:09:fe:e9:8d:88:d0:b0:70:d3:d3:
                    93:11
                Exponent: 65537 (0x10001)
        X509v3 extensions:
            X509v3 Basic Constraints: 
                CA:FALSE
            Netscape Comment: 
                OpenSSL Generated Certificate
            X509v3 Subject Key Identifier: 
                52:31:A4:48:54:BA:A6:DB:D6:1E:41:A8:7C:23:A7:D1:4F:B2:CA:F1
            X509v3 Authority Key Identifier: 
                keyid:52:31:A4:48:54:BA:A6:DB:D6:1E:41:A8:7C:23:A7:D1:4F:B2:CA:F1

    Signature Algorithm: sha256WithRSAEncryption
         47:6d:ca:53:a6:51:c3:0e:43:5b:4c:e4:5f:33:09:98:03:a9:
         b8:73:b7:a6:d7:58:31:ce:7b:4e:a2:d1:bb:20:59:f0:e1:d4:
         eb:15:c8:36:b3:72:06:d2:fc:1e:d2:4c:d4:d8:2e:df:3f:b2:
         c3:bb:cc:8a:db:ad:6a:9e:93:33:8d:f9:08:54:52:c6:65:37:
         ea:f1:d4:b0:d0:63:92:18:14:f2:98:af:36:48:49:b1:1f:cf:
         ef:bf:ef:5c:20:5a:96:9d:ac:3e:8e:02:29:11:31:03:88:03:
         4a:d6:9d:22:e1:de:c6:6a:b0:42:35:dd:8d:4f:17:8a:9f:2f:
         61:1e:6a:57:ec:43:11:64:46:6b:6c:f7:91:2b:2e:4c:28:b6:
         53:49:fc:a7:f2:55:97:8a:15:81:43:08:80:a1:55:8d:fc:7f:
         96:82:bf:ea:88:c2:90:00:68:bd:4c:05:35:81:28:a1:08:78:
         34:cf:b0:64:9b:82:9d:25:af:be:35:04:f0:64:9c:53:89:19:
         8c:47:af:a8:ec:27:52:94:7f:fc:cf:0f:68:9b:2b:51:f9:c7:
         67:3f:ec:ca:fc:fd:27:41:95:d3:42:ad:51:bf:62:27:89:85:
         fb:00:ed:63:e1:a8:3d:e0:d0:36:df:15:a1:51:e4:e4:48:30:
         a9:a1:1c:3f
-----BEGIN CERTIFICATE-----
MIIEADCCAuigAwIBAgIBATANBgkqhkiG9w0BAQsFADCBhDELMAkGA1UEBhMCQ04x
DzANBgNVBAgMBkZ1SmlhbjERMA8GA1UECgwIYXBleHNvZnQxETAPBgNVBAsMCGFw
ZXhzb2Z0MREwDwYDVQQDDAhhcGV4c29mdDErMCkGCSqGSIb3DQEJARYcY2hlbmdi
ZW5zaGFuQGFwZXhzb2Z0LmNvbS5jbjAeFw0xNzEyMjIwNjU4MzZaFw0xODEyMjIw
NjU4MzZaMIGEMQswCQYDVQQGEwJDTjEPMA0GA1UECAwGRnVKaWFuMREwDwYDVQQK
DAhhcGV4c29mdDERMA8GA1UECwwIYXBleHNvZnQxETAPBgNVBAMMCGFwZXhzb2Z0
MSswKQYJKoZIhvcNAQkBFhxjaGVuZ2JlbnNoYW5AYXBleHNvZnQuY29tLmNuMIIB
IjANBgkqhkiG9w0BAQEFAAOCAQ8AMIIBCgKCAQEA4+FTA7Rh7mQlrphYjGgpMoyV
G8iKV0jIOauUClXmZk7l4htgZlNNQccclYCAz0hlImGm2LiEqHDGznyxyHGFz0dC
+I0v9fa/jfHhgib6B2WgMSKar0/7YNmQpeV4b6xrO4PipTjgAlbLrf0Z2Ei2S4s6
8LQyyMfh7Flokem3Uovk5nGvFQDb+Qfnw+k/6KPEZF7NQezPeNYJnxMH4agSMzri
TDT1No1vIfkNd8Y9i59CZe0kJ71Pna0TXyrDVLI4pFBAdz9n6JDbwtESPkClhDJc
rrESrmCd2cyttNc3MYHz2r0iw+XKGdQoUra5FTQLI2+MXwn+6Y2I0LBw09OTEQID
AQABo3sweTAJBgNVHRMEAjAAMCwGCWCGSAGG+EIBDQQfFh1PcGVuU1NMIEdlbmVy
YXRlZCBDZXJ0aWZpY2F0ZTAdBgNVHQ4EFgQUUjGkSFS6ptvWHkGofCOn0U+yyvEw
HwYDVR0jBBgwFoAUUjGkSFS6ptvWHkGofCOn0U+yyvEwDQYJKoZIhvcNAQELBQAD
ggEBAEdtylOmUcMOQ1tM5F8zCZgDqbhzt6bXWDHOe06i0bsgWfDh1OsVyDazcgbS
/B7STNTYLt8/ssO7zIrbrWqekzON+QhUUsZlN+rx1LDQY5IYFPKYrzZISbEfz++/
71wgWpadrD6OAikRMQOIA0rWnSLh3sZqsEI13Y1PF4qfL2EealfsQxFkRmts95Er
LkwotlNJ/KfyVZeKFYFDCIChVY38f5aCv+qIwpAAaL1MBTWBKKEIeDTPsGSbgp0l
r741BPBknFOJGYxHr6jsJ1KUf/zPD2ibK1H5x2c/7Mr8/SdBldNCrVG/YieJhfsA
7WPhqD3g0DbfFaFR5ORIMKmhHD8=
-----END CERTIFICATE-----
