Certificate:
    Data:
        Version: 3 (0x2)
        Serial Number: 2 (0x2)
        Signature Algorithm: sha256WithRSAEncryption
        Issuer: C=CN, ST=FuJian, O=apexsoft, OU=apexsoft, CN=apexsoft/emailAddress=chengbenshan@apexsoft.com.cn
        Validity
            Not Before: Dec 22 07:06:53 2017 GMT
            Not After : Dec 22 07:06:53 2018 GMT
        Subject: C=CN, OU=apexsoft, CN=c
        Subject Public Key Info:
            Public Key Algorithm: rsaEncryption
                RSA Public-Key: (2048 bit)
                Modulus:
                    00:90:5f:0f:6d:67:96:ea:e1:98:55:a1:c1:d3:da:
                    28:c4:26:5d:3d:42:be:f9:76:3c:e1:52:c6:77:28:
                    a8:f5:9b:54:4b:6b:bb:77:57:de:10:4a:5c:84:c7:
                    a6:5f:76:e6:82:90:86:26:e7:8f:1f:67:a0:64:9e:
                    a5:71:09:56:8a:57:46:cb:a0:1f:f3:fa:3d:b7:e5:
                    7f:d3:f2:2a:f1:e6:b3:0a:66:11:b9:b6:06:49:2c:
                    34:af:ca:30:6b:f4:d0:87:e0:c1:e0:d3:0a:1b:95:
                    3b:2e:86:c5:17:ee:c2:14:49:db:4f:36:43:a6:ee:
                    79:b3:e5:e7:15:fd:30:1c:6d:6c:0c:3c:d4:09:b9:
                    07:58:17:89:8f:6a:d8:ff:b7:61:d6:4c:56:e5:5e:
                    7d:03:f4:1f:ba:d9:d5:f8:7e:fa:55:43:7f:62:44:
                    25:90:c9:8c:17:76:f1:61:4e:c4:ca:b2:ae:5f:cf:
                    d1:2a:77:3a:ee:c3:12:e3:62:13:18:80:bc:c8:e4:
                    18:04:43:f4:ca:23:df:ea:ac:93:c5:16:95:2c:1d:
                    cf:d4:74:e4:49:8e:32:d6:5c:08:b5:63:20:b6:fc:
                    11:11:50:b1:0a:68:04:ee:bf:66:a4:d9:0f:3d:d0:
                    0e:ef:93:cc:19:a3:41:ec:26:f2:af:c3:49:d6:87:
                    9e:7f
                Exponent: 65537 (0x10001)
        X509v3 extensions:
            1.2.3.412: 
                .
0000001444
    Signature Algorithm: sha256WithRSAEncryption
         b0:5c:ba:72:01:a7:54:cf:e7:cc:ff:e4:6a:50:fc:3b:e7:37:
         5e:be:05:b0:fd:ea:1e:06:2c:9a:9b:05:2d:d5:d4:36:fd:9a:
         ab:47:68:a9:7e:cd:98:72:92:10:8b:7f:ee:2f:49:f6:07:20:
         3e:f9:a4:ac:d3:ff:be:60:5d:87:d5:79:8b:02:b7:ae:db:a5:
         c9:f4:79:7d:5e:3f:8c:27:cf:65:1a:d6:86:6e:bf:4d:80:65:
         eb:f1:26:7a:b0:fc:85:e6:4b:69:55:17:a2:42:e8:db:03:2a:
         61:9d:01:2c:07:3e:9e:dd:e8:9e:f3:5c:99:19:92:c9:af:f0:
         2f:a4:00:b3:9c:0a:91:e9:f2:3e:6f:65:5a:47:10:d4:8a:6e:
         14:89:1a:7d:83:73:b8:86:e7:b8:26:0c:6a:69:e0:06:2d:11:
         64:be:e1:1b:13:d3:dc:c1:41:b0:a8:c5:86:e0:bc:48:6c:8b:
         c9:0a:84:34:1e:b0:dd:a1:99:df:a7:50:f8:e7:48:2b:96:54:
         2b:b7:dd:2f:a3:42:c6:f4:bb:c2:9e:38:45:cb:8f:72:15:3d:
         33:b8:3b:42:ab:13:ec:5e:9d:d4:7f:75:17:90:59:fa:ac:2a:
         aa:92:36:3d:ff:f7:c7:9d:67:bc:9f:d8:f5:0b:7d:31:d4:3e:
         4b:ea:24:bd
-----BEGIN CERTIFICATE-----
MIIDRDCCAiygAwIBAgIBAjANBgkqhkiG9w0BAQsFADCBhDELMAkGA1UEBhMCQ04x
DzANBgNVBAgMBkZ1SmlhbjERMA8GA1UECgwIYXBleHNvZnQxETAPBgNVBAsMCGFw
ZXhzb2Z0MREwDwYDVQQDDAhhcGV4c29mdDErMCkGCSqGSIb3DQEJARYcY2hlbmdi
ZW5zaGFuQGFwZXhzb2Z0LmNvbS5jbjAeFw0xNzEyMjIwNzA2NTNaFw0xODEyMjIw
NzA2NTNaMCwxCzAJBgNVBAYTAkNOMREwDwYDVQQLEwhhcGV4c29mdDEKMAgGA1UE
AxMBYzCCASIwDQYJKoZIhvcNAQEBBQADggEPADCCAQoCggEBAJBfD21nlurhmFWh
wdPaKMQmXT1Cvvl2POFSxncoqPWbVEtru3dX3hBKXITHpl925oKQhibnjx9noGSe
pXEJVopXRsugH/P6Pbflf9PyKvHmswpmEbm2BkksNK/KMGv00IfgweDTChuVOy6G
xRfuwhRJ2082Q6buebPl5xX9MBxtbAw81Am5B1gXiY9q2P+3YdZMVuVefQP0H7rZ
1fh++lVDf2JEJZDJjBd28WFOxMqyrl/P0Sp3Ou7DEuNiExiAvMjkGARD9Moj3+qs
k8UWlSwdz9R05EmOMtZcCLVjILb8ERFQsQpoBO6/ZqTZDz3QDu+TzBmjQewm8q/D
SdaHnn8CAwEAAaMYMBYwFAYEKgODHAQMDAowMDAwMDAxNDQ0MA0GCSqGSIb3DQEB
CwUAA4IBAQCwXLpyAadUz+fM/+RqUPw75zdevgWw/eoeBiyamwUt1dQ2/ZqrR2ip
fs2YcpIQi3/uL0n2ByA++aSs0/++YF2H1XmLAreu26XJ9Hl9Xj+MJ89lGtaGbr9N
gGXr8SZ6sPyF5ktpVReiQujbAyphnQEsBz6e3eie81yZGZLJr/AvpACznAqR6fI+
b2VaRxDUim4UiRp9g3O4hue4JgxqaeAGLRFkvuEbE9PcwUGwqMWG4LxIbIvJCoQ0
HrDdoZnfp1D450grllQrt90vo0LG9LvCnjhFy49yFT0zuDtCqxPsXp3Uf3UXkFn6
rCqqkjY9//fHnWe8n9j1C30x1D5L6iS9
-----END CERTIFICATE-----
