Certificate:
    Data:
        Version: 3 (0x2)
        Serial Number: 3 (0x3)
        Signature Algorithm: sha256WithRSAEncryption
        Issuer: C=CN, ST=FuJian, O=apexsoft, OU=apexsoft, CN=apexsoft/emailAddress=chengbenshan@apexsoft.com.cn
        Validity
            Not Before: Dec 22 07:13:11 2017 GMT
            Not After : Dec 22 07:13:11 2018 GMT
        Subject: C=CN, OU=apexsoft, CN=c
        Subject Public Key Info:
            Public Key Algorithm: rsaEncryption
                RSA Public-Key: (2048 bit)
                Modulus:
                    00:9a:70:43:6d:b7:96:6e:c4:6f:ac:d8:ed:e2:e8:
                    6d:76:ec:b0:14:4f:75:af:9f:1a:8d:69:4c:d1:e8:
                    d8:b1:09:8a:2c:f9:9c:df:69:38:2b:c8:df:57:cc:
                    b1:79:4b:17:71:b3:f2:fd:9d:92:dc:99:73:b5:14:
                    dc:6e:6d:8d:8e:8d:5e:1c:87:a6:6b:22:4a:29:40:
                    59:d0:5b:1d:68:ee:d4:1a:3c:e6:ee:64:61:99:2e:
                    29:25:4a:43:2c:3c:85:48:22:7a:c9:b5:7e:69:bd:
                    68:69:d3:1e:a1:10:66:e3:e9:4a:cb:d0:81:17:b9:
                    f9:76:3c:3f:3f:59:08:c5:0e:8a:de:48:61:59:94:
                    77:29:14:ee:f6:3f:be:e2:35:91:20:45:5d:39:f9:
                    1b:36:21:16:7a:c2:59:52:0a:db:b8:22:13:71:e0:
                    42:95:ca:fa:db:c3:ce:e8:bb:71:e5:8e:7b:d0:f5:
                    d1:cc:37:a2:3d:21:ba:9f:27:c8:86:af:11:33:42:
                    92:83:4d:b1:5e:e7:ab:96:fa:80:7a:6f:c6:b5:60:
                    de:e3:25:80:df:d2:ac:b7:79:96:64:d5:1a:af:8f:
                    26:5f:7d:56:69:e1:a5:6e:b4:b9:1a:d9:ed:4a:10:
                    87:6b:c7:85:6e:fa:a1:68:73:ab:30:19:9a:87:7c:
                    ab:47
                Exponent: 65537 (0x10001)
        X509v3 extensions:
            X509v3 Basic Constraints: 
                CA:FALSE
            Netscape Comment: 
                OpenSSL Generated Certificate
            X509v3 Subject Key Identifier: 
                76:00:44:2D:03:46:C1:EA:7A:E1:EB:CC:B3:53:FA:32:34:85:5D:86
            X509v3 Authority Key Identifier: 
                keyid:52:31:A4:48:54:BA:A6:DB:D6:1E:41:A8:7C:23:A7:D1:4F:B2:CA:F1

    Signature Algorithm: sha256WithRSAEncryption
         69:d4:86:fc:21:2c:0e:c3:e3:c4:d0:f6:96:62:f7:9d:9d:51:
         14:3b:7c:51:4a:5d:8d:54:5e:65:df:37:9a:ce:22:df:e1:8f:
         6a:57:fb:38:59:f0:74:a8:6c:0a:db:ad:af:ff:1b:e0:e6:7e:
         9a:d3:85:df:53:78:63:5c:14:fc:9d:14:94:54:21:02:76:53:
         00:91:54:ac:04:e9:bc:e6:c6:0c:8a:7a:4d:ba:d7:07:04:0f:
         bc:1d:ae:c7:cd:04:72:73:5b:e4:5c:c3:65:b5:66:7e:ab:5f:
         a3:8d:86:dc:50:59:d2:c9:45:39:22:a3:24:75:ee:fa:a3:14:
         70:aa:1c:f8:87:48:e5:27:19:f1:72:45:a4:6e:f9:95:88:a1:
         3f:6b:e8:d5:19:90:ec:3d:2a:bd:ed:b3:89:d3:25:6e:88:3e:
         40:8a:59:1f:32:7e:9e:bf:4d:b2:4f:b1:e1:e7:34:8f:48:cf:
         bc:98:22:d8:ff:db:dc:52:91:d2:de:a3:97:fe:77:e0:f4:a5:
         d3:d5:74:1c:19:ab:ef:38:fe:92:c5:db:f3:24:02:8a:be:f7:
         7b:74:2d:53:62:c3:f7:ac:dc:60:65:84:a6:a6:bb:de:2d:d5:
         4f:15:3f:9b:05:86:4f:09:70:25:61:9f:8d:4c:1f:f0:ea:0f:
         c4:24:6c:25
-----BEGIN CERTIFICATE-----
MIIDpzCCAo+gAwIBAgIBAzANBgkqhkiG9w0BAQsFADCBhDELMAkGA1UEBhMCQ04x
DzANBgNVBAgMBkZ1SmlhbjERMA8GA1UECgwIYXBleHNvZnQxETAPBgNVBAsMCGFw
ZXhzb2Z0MREwDwYDVQQDDAhhcGV4c29mdDErMCkGCSqGSIb3DQEJARYcY2hlbmdi
ZW5zaGFuQGFwZXhzb2Z0LmNvbS5jbjAeFw0xNzEyMjIwNzEzMTFaFw0xODEyMjIw
NzEzMTFaMCwxCzAJBgNVBAYTAkNOMREwDwYDVQQLEwhhcGV4c29mdDEKMAgGA1UE
AxMBYzCCASIwDQYJKoZIhvcNAQEBBQADggEPADCCAQoCggEBAJpwQ223lm7Eb6zY
7eLobXbssBRPda+fGo1pTNHo2LEJiiz5nN9pOCvI31fMsXlLF3Gz8v2dktyZc7UU
3G5tjY6NXhyHpmsiSilAWdBbHWju1Bo85u5kYZkuKSVKQyw8hUgiesm1fmm9aGnT
HqEQZuPpSsvQgRe5+XY8Pz9ZCMUOit5IYVmUdykU7vY/vuI1kSBFXTn5GzYhFnrC
WVIK27giE3HgQpXK+tvDzui7ceWOe9D10cw3oj0hup8nyIavETNCkoNNsV7nq5b6
gHpvxrVg3uMlgN/SrLd5lmTVGq+PJl99VmnhpW60uRrZ7UoQh2vHhW76oWhzqzAZ
mod8q0cCAwEAAaN7MHkwCQYDVR0TBAIwADAsBglghkgBhvhCAQ0EHxYdT3BlblNT
TCBHZW5lcmF0ZWQgQ2VydGlmaWNhdGUwHQYDVR0OBBYEFHYARC0DRsHqeuHrzLNT
+jI0hV2GMB8GA1UdIwQYMBaAFFIxpEhUuqbb1h5BqHwjp9FPssrxMA0GCSqGSIb3
DQEBCwUAA4IBAQBp1Ib8ISwOw+PE0PaWYvednVEUO3xRSl2NVF5l3zeaziLf4Y9q
V/s4WfB0qGwK262v/xvg5n6a04XfU3hjXBT8nRSUVCECdlMAkVSsBOm85sYMinpN
utcHBA+8Ha7HzQRyc1vkXMNltWZ+q1+jjYbcUFnSyUU5IqMkde76oxRwqhz4h0jl
JxnxckWkbvmViKE/a+jVGZDsPSq97bOJ0yVuiD5AilkfMn6ev02yT7Hh5zSPSM+8
mCLY/9vcUpHS3qOX/nfg9KXT1XQcGavvOP6SxdvzJAKKvvd7dC1TYsP3rNxgZYSm
prveLdVPFT+bBYZPCXAlYZ+NTB/w6g/EJGwl
-----END CERTIFICATE-----
